; Function Attrs: null_pointer_is_valid sspstrong uwtable
define hidden noalias noundef ptr @macro_new(ptr noundef %0, ptr noundef %1) local_unnamed_addr #0 {
  %3 = tail call noalias dereferenceable_or_null(56) ptr @g_malloc0(i64 noundef 56) #10
  %4 = tail call noalias ptr @g_strdup(ptr noundef %0)
  store ptr %4, ptr %3, align 8
  %5 = tail call noalias ptr @g_strdup(ptr noundef %1)
  %6 = getelementptr inbounds nuw i8, ptr %3, i64 8
  store ptr %5, ptr %6, align 8
  tail call void @macro_parse(ptr noundef %3)
  ret ptr %3
}